target datalayout = "e-m:e-p270:32:32-p271:32:32-p272:64:64-i64:64-i128:128-f80:128-n8:16:32:64-S128"
target triple = "x86_64-pc-linux-gnu"

%struct.anon.0 = type { i8, i8 }
%struct.rb_random_interface_t = type { i64, %struct.anon.0, i16, ptr, ptr, ptr, ptr, ptr }
%struct.rbimpl_size_mul_overflow_tag = type { i8, i64 }

; Function Attrs: inlinehint nounwind sspstrong willreturn memory(none) uwtable
define internal { i8, i64 } @rbimpl_size_mul_overflow(i64 noundef %0, i64 noundef %1) #8 {
  %3 = alloca %struct.rbimpl_size_mul_overflow_tag, align 8
  %4 = alloca i64, align 8
  %5 = alloca i64, align 8
  store i64 %0, ptr %4, align 8, !tbaa !26
  store i64 %1, ptr %5, align 8, !tbaa !26
  call void @llvm.memset.p0.i64(ptr align 8 %3, i8 0, i64 16, i1 false)
  %6 = load i64, ptr %4, align 8, !tbaa !26
  %7 = load i64, ptr %5, align 8, !tbaa !26
  %8 = getelementptr inbounds nuw %struct.rbimpl_size_mul_overflow_tag, ptr %3, i32 0, i32 1
  %9 = call { i64, i1 } @llvm.umul.with.overflow.i64(i64 %6, i64 %7)
  %10 = extractvalue { i64, i1 } %9, 1
  %11 = extractvalue { i64, i1 } %9, 0
  store i64 %11, ptr %8, align 8
  %12 = getelementptr inbounds nuw %struct.rbimpl_size_mul_overflow_tag, ptr %3, i32 0, i32 0
  %13 = zext i1 %10 to i8
  store i8 %13, ptr %12, align 8, !tbaa !80
  %14 = load { i8, i64 }, ptr %3, align 8
  ret { i8, i64 } %14
}

; Function Attrs: inlinehint nounwind sspstrong uwtable
define internal i64 @rbimpl_size_mul_or_raise(i64 noundef %0, i64 noundef %1) #4 {
  %3 = alloca i64, align 8
  %4 = alloca i64, align 8
  %5 = alloca %struct.rbimpl_size_mul_overflow_tag, align 8
  store i64 %0, ptr %3, align 8, !tbaa !26
  store i64 %1, ptr %4, align 8, !tbaa !26
  call void @llvm.lifetime.start.p0(i64 16, ptr %5) #24
  %6 = load i64, ptr %3, align 8, !tbaa !26
  %7 = load i64, ptr %4, align 8, !tbaa !26
  %8 = call { i8, i64 } @rbimpl_size_mul_overflow(i64 noundef %6, i64 noundef %7) #28
  %9 = getelementptr inbounds nuw { i8, i64 }, ptr %5, i32 0, i32 0
  %10 = extractvalue { i8, i64 } %8, 0
  store i8 %10, ptr %9, align 8
  %11 = getelementptr inbounds nuw { i8, i64 }, ptr %5, i32 0, i32 1
  %12 = extractvalue { i8, i64 } %8, 1
  store i64 %12, ptr %11, align 8
  %13 = getelementptr inbounds nuw %struct.rbimpl_size_mul_overflow_tag, ptr %5, i32 0, i32 0
  %14 = load i8, ptr %13, align 8, !tbaa !80, !range !62, !noundef !63
  %15 = trunc i8 %14 to i1
  %16 = xor i1 %15, true
  %17 = xor i1 %16, true
  %18 = xor i1 %17, true
  %19 = zext i1 %18 to i32
  %20 = sext i32 %19 to i64
  %21 = call i64 @llvm.expect.i64(i64 %20, i64 1)
  %22 = icmp ne i64 %21, 0
  br i1 %22, label %23, label %26

23:                                               ; preds = %2
  %24 = getelementptr inbounds nuw %struct.rbimpl_size_mul_overflow_tag, ptr %5, i32 0, i32 1
  %25 = load i64, ptr %24, align 8, !tbaa !82
  call void @llvm.lifetime.end.p0(i64 16, ptr %5) #24
  ret i64 %25

26:                                               ; preds = %2
  %27 = load i64, ptr %3, align 8, !tbaa !26
  %28 = load i64, ptr %4, align 8, !tbaa !26
  call void @ruby_malloc_size_overflow(i64 noundef %27, i64 noundef %28) #27
  unreachable
}

; Function Attrs: nounwind sspstrong uwtable
define internal i64 @make_mask(i64 noundef %0) #0 {
  %2 = alloca i64, align 8
  store i64 %0, ptr %2, align 8, !tbaa !26
  %3 = load i64, ptr %2, align 8, !tbaa !26
  %4 = load i64, ptr %2, align 8, !tbaa !26
  %5 = lshr i64 %4, 1
  %6 = or i64 %3, %5
  store i64 %6, ptr %2, align 8, !tbaa !26
  %7 = load i64, ptr %2, align 8, !tbaa !26
  %8 = load i64, ptr %2, align 8, !tbaa !26
  %9 = lshr i64 %8, 2
  %10 = or i64 %7, %9
  store i64 %10, ptr %2, align 8, !tbaa !26
  %11 = load i64, ptr %2, align 8, !tbaa !26
  %12 = load i64, ptr %2, align 8, !tbaa !26
  %13 = lshr i64 %12, 4
  %14 = or i64 %11, %13
  store i64 %14, ptr %2, align 8, !tbaa !26
  %15 = load i64, ptr %2, align 8, !tbaa !26
  %16 = load i64, ptr %2, align 8, !tbaa !26
  %17 = lshr i64 %16, 8
  %18 = or i64 %15, %17
  store i64 %18, ptr %2, align 8, !tbaa !26
  %19 = load i64, ptr %2, align 8, !tbaa !26
  %20 = load i64, ptr %2, align 8, !tbaa !26
  %21 = lshr i64 %20, 16
  %22 = or i64 %19, %21
  store i64 %22, ptr %2, align 8, !tbaa !26
  %23 = load i64, ptr %2, align 8, !tbaa !26
  %24 = load i64, ptr %2, align 8, !tbaa !26
  %25 = lshr i64 %24, 32
  %26 = or i64 %23, %25
  store i64 %26, ptr %2, align 8, !tbaa !26
  %27 = load i64, ptr %2, align 8, !tbaa !26
  ret i64 %27
}

; Function Attrs: inlinehint nounwind sspstrong uwtable
define internal ptr @rb_alloc_tmp_buffer2(ptr noundef %0, i64 noundef %1, i64 noundef %2) #4 {
  %4 = alloca ptr, align 8
  %5 = alloca i64, align 8
  %6 = alloca i64, align 8
  %7 = alloca i64, align 8
  %8 = alloca i64, align 8
  store ptr %0, ptr %4, align 8, !tbaa !55
  store i64 %1, ptr %5, align 8, !tbaa !26
  store i64 %2, ptr %6, align 8, !tbaa !26
  call void @llvm.lifetime.start.p0(i64 8, ptr %7) #24
  %9 = load i64, ptr %5, align 8, !tbaa !26
  %10 = load i64, ptr %6, align 8, !tbaa !26
  %11 = call i64 @rbimpl_size_mul_or_raise(i64 noundef %9, i64 noundef %10)
  store i64 %11, ptr %7, align 8, !tbaa !26
  call void @llvm.lifetime.start.p0(i64 8, ptr %8) #24
  %12 = load i64, ptr %7, align 8, !tbaa !26
  %13 = add i64 %12, 8
  %14 = sub i64 %13, 1
  %15 = udiv i64 %14, 8
  store i64 %15, ptr %8, align 8, !tbaa !26
  %16 = load ptr, ptr %4, align 8, !tbaa !55
  %17 = load i64, ptr %7, align 8, !tbaa !26
  %18 = load i64, ptr %8, align 8, !tbaa !26
  %19 = call noalias nonnull ptr @rb_alloc_tmp_buffer_with_count(ptr noundef %16, i64 noundef %17, i64 noundef %18) #30
  call void @llvm.lifetime.end.p0(i64 8, ptr %8) #24
  call void @llvm.lifetime.end.p0(i64 8, ptr %7) #24
  ret ptr %19
}

; Function Attrs: nounwind sspstrong uwtable
define internal i64 @limited_big_rand(ptr noundef %0, ptr noundef %1, i64 noundef %2) #0 {
  %4 = alloca ptr, align 8
  %5 = alloca ptr, align 8
  %6 = alloca i64, align 8
  %7 = alloca i32, align 4
  %8 = alloca i64, align 8
  %9 = alloca i32, align 4
  %10 = alloca i64, align 8
  %11 = alloca ptr, align 8
  %12 = alloca ptr, align 8
  %13 = alloca ptr, align 8
  %14 = alloca i64, align 8
  %15 = alloca i64, align 8
  %16 = alloca i32, align 4
  %17 = alloca i32, align 4
  %18 = alloca i32, align 4
  store ptr %0, ptr %4, align 8, !tbaa !20
  store ptr %1, ptr %5, align 8, !tbaa !24
  store i64 %2, ptr %6, align 8, !tbaa !26
  call void @llvm.lifetime.start.p0(i64 4, ptr %7) #24
  call void @llvm.lifetime.start.p0(i64 8, ptr %8) #24
  call void @llvm.lifetime.start.p0(i64 4, ptr %9) #24
  call void @llvm.lifetime.start.p0(i64 8, ptr %10) #24
  call void @llvm.lifetime.start.p0(i64 8, ptr %11) #24
  call void @llvm.lifetime.start.p0(i64 8, ptr %12) #24
  call void @llvm.lifetime.start.p0(i64 8, ptr %13) #24
  call void @llvm.lifetime.start.p0(i64 8, ptr %14) #24
  call void @llvm.lifetime.start.p0(i64 8, ptr %15) #24
  %19 = load i64, ptr %6, align 8, !tbaa !26
  %20 = call i64 @rb_absint_numwords(i64 noundef %19, i64 noundef 32, ptr noundef null)
  store i64 %20, ptr %10, align 8, !tbaa !26
  %21 = load i64, ptr %10, align 8, !tbaa !26
  %22 = mul i64 %21, 2
  %23 = icmp ult i64 %22, 256
  br i1 %23, label %24, label %29

24:                                               ; preds = %3
  store i64 0, ptr %14, align 8, !tbaa !26
  %25 = load i64, ptr %10, align 8, !tbaa !26
  %26 = mul i64 %25, 2
  %27 = mul i64 %26, 4
  %28 = alloca i8, i64 %27, align 16
  br label %33

29:                                               ; preds = %3
  %30 = load i64, ptr %10, align 8, !tbaa !26
  %31 = mul i64 %30, 2
  %32 = call ptr @rb_alloc_tmp_buffer2(ptr noundef %14, i64 noundef %31, i64 noundef 4)
  br label %33

33:                                               ; preds = %29, %24
  %34 = phi ptr [ %28, %24 ], [ %32, %29 ]
  store ptr %34, ptr %11, align 8, !tbaa !59
  %35 = load ptr, ptr %11, align 8, !tbaa !59
  store ptr %35, ptr %12, align 8, !tbaa !59
  %36 = load ptr, ptr %11, align 8, !tbaa !59
  %37 = load i64, ptr %10, align 8, !tbaa !26
  %38 = getelementptr i32, ptr %36, i64 %37
  store ptr %38, ptr %13, align 8, !tbaa !59
  %39 = load i64, ptr %6, align 8, !tbaa !26
  %40 = load ptr, ptr %12, align 8, !tbaa !59
  %41 = load i64, ptr %10, align 8, !tbaa !26
  %42 = call i32 @rb_integer_pack(i64 noundef %39, ptr noundef %40, i64 noundef %41, i64 noundef 4, i64 noundef 0, i32 noundef 66)
  br label %43

43:                                               ; preds = %93, %33
  store i32 0, ptr %7, align 4, !tbaa !19
  store i32 1, ptr %9, align 4, !tbaa !19
  %44 = load i64, ptr %10, align 8, !tbaa !26
  %45 = sub i64 %44, 1
  store i64 %45, ptr %8, align 8, !tbaa !26
  br label %46

46:                                               ; preds = %96, %43
  %47 = load i64, ptr %8, align 8, !tbaa !26
  %48 = icmp sle i64 0, %47
  br i1 %48, label %49, label %99

49:                                               ; preds = %46
  call void @llvm.lifetime.start.p0(i64 4, ptr %16) #24
  store i32 0, ptr %16, align 4, !tbaa !19
  call void @llvm.lifetime.start.p0(i64 4, ptr %17) #24
  %50 = load ptr, ptr %12, align 8, !tbaa !59
  %51 = load i64, ptr %8, align 8, !tbaa !26
  %52 = getelementptr i32, ptr %50, i64 %51
  %53 = load i32, ptr %52, align 4, !tbaa !19
  store i32 %53, ptr %17, align 4, !tbaa !19
  %54 = load i32, ptr %7, align 4, !tbaa !19
  %55 = icmp ne i32 %54, 0
  br i1 %55, label %56, label %57

56:                                               ; preds = %49
  br label %62

57:                                               ; preds = %49
  %58 = load i32, ptr %17, align 4, !tbaa !19
  %59 = zext i32 %58 to i64
  %60 = call i64 @make_mask(i64 noundef %59)
  %61 = trunc i64 %60 to i32
  br label %62

62:                                               ; preds = %57, %56
  %63 = phi i32 [ -1, %56 ], [ %61, %57 ]
  store i32 %63, ptr %7, align 4, !tbaa !19
  %64 = load i32, ptr %7, align 4, !tbaa !19
  %65 = icmp ne i32 %64, 0
  br i1 %65, label %66, label %88

66:                                               ; preds = %62
  %67 = load ptr, ptr %4, align 8, !tbaa !20
  %68 = getelementptr inbounds nuw %struct.rb_random_interface_t, ptr %67, i32 0, i32 5
  %69 = load ptr, ptr %68, align 8, !tbaa !32
  %70 = load ptr, ptr %5, align 8, !tbaa !24
  %71 = call i32 %69(ptr noundef %70)
  %72 = load i32, ptr %7, align 4, !tbaa !19
  %73 = and i32 %71, %72
  store i32 %73, ptr %16, align 4, !tbaa !19
  %74 = load i32, ptr %9, align 4, !tbaa !19
  %75 = icmp ne i32 %74, 0
  br i1 %75, label %76, label %87

76:                                               ; preds = %66
  %77 = load i32, ptr %17, align 4, !tbaa !19
  %78 = load i32, ptr %16, align 4, !tbaa !19
  %79 = icmp ult i32 %77, %78
  br i1 %79, label %80, label %81

80:                                               ; preds = %76
  store i32 2, ptr %18, align 4
  br label %93

81:                                               ; preds = %76
  %82 = load i32, ptr %16, align 4, !tbaa !19
  %83 = load i32, ptr %17, align 4, !tbaa !19
  %84 = icmp ult i32 %82, %83
  br i1 %84, label %85, label %86

85:                                               ; preds = %81
  store i32 0, ptr %9, align 4, !tbaa !19
  br label %86

86:                                               ; preds = %85, %81
  br label %87

87:                                               ; preds = %86, %66
  br label %88

88:                                               ; preds = %87, %62
  %89 = load i32, ptr %16, align 4, !tbaa !19
  %90 = load ptr, ptr %13, align 8, !tbaa !59
  %91 = load i64, ptr %8, align 8, !tbaa !26
  %92 = getelementptr i32, ptr %90, i64 %91
  store i32 %89, ptr %92, align 4, !tbaa !19
  store i32 0, ptr %18, align 4
  br label %93

93:                                               ; preds = %88, %80
  call void @llvm.lifetime.end.p0(i64 4, ptr %17) #24
  call void @llvm.lifetime.end.p0(i64 4, ptr %16) #24
  %94 = load i32, ptr %18, align 4
  switch i32 %94, label %104 [
    i32 0, label %95
    i32 2, label %43
  ]

95:                                               ; preds = %93
  br label %96

96:                                               ; preds = %95
  %97 = load i64, ptr %8, align 8, !tbaa !26
  %98 = add i64 %97, -1
  store i64 %98, ptr %8, align 8, !tbaa !26
  br label %46, !llvm.loop !100

99:                                               ; preds = %46
  %100 = load ptr, ptr %13, align 8, !tbaa !59
  %101 = load i64, ptr %10, align 8, !tbaa !26
  %102 = call i64 @rb_integer_unpack(ptr noundef %100, i64 noundef %101, i64 noundef 4, i64 noundef 0, i32 noundef 66)
  store i64 %102, ptr %15, align 8, !tbaa !26
  call void @rb_free_tmp_buffer(ptr noundef %14)
  %103 = load i64, ptr %15, align 8, !tbaa !26
  store i32 1, ptr %18, align 4
  call void @llvm.lifetime.end.p0(i64 8, ptr %15) #24
  call void @llvm.lifetime.end.p0(i64 8, ptr %14) #24
  call void @llvm.lifetime.end.p0(i64 8, ptr %13) #24
  call void @llvm.lifetime.end.p0(i64 8, ptr %12) #24
  call void @llvm.lifetime.end.p0(i64 8, ptr %11) #24
  call void @llvm.lifetime.end.p0(i64 8, ptr %10) #24
  call void @llvm.lifetime.end.p0(i64 4, ptr %9) #24
  call void @llvm.lifetime.end.p0(i64 8, ptr %8) #24
  call void @llvm.lifetime.end.p0(i64 4, ptr %7) #24
  ret i64 %103

104:                                              ; preds = %93
  unreachable
}