; Function Attrs: nounwind sspstrong uwtable
define internal fastcc i64 @limited_big_rand(ptr noundef readonly captures(none) %0, ptr noundef nonnull %1, i64 noundef %2) unnamed_addr #0 {
  %4 = alloca i64, align 8
  call void @llvm.lifetime.start.p0(i64 8, ptr nonnull %4) #23
  %5 = tail call i64 @rb_absint_numwords(i64 noundef %2, i64 noundef 32, ptr noundef null) #23
  %6 = shl i64 %5, 1
  %7 = icmp ult i64 %6, 256
  br i1 %7, label %8, label %11

8:                                                ; preds = %3
  store i64 0, ptr %4, align 8, !tbaa !43
  %9 = shl i64 %5, 3
  %10 = alloca i8, i64 %9, align 16
  br label %17

11:                                               ; preds = %3
  %12 = icmp ugt i64 %6, 4611686018427387903
  br i1 %12, label %13, label %rb_alloc_tmp_buffer2.exit, !prof !88

13:                                               ; preds = %11
  tail call void @ruby_malloc_size_overflow(i64 noundef range(i64 256, 0) %6, i64 noundef 4) #25
  unreachable

rb_alloc_tmp_buffer2.exit:                        ; preds = %11
  %14 = shl i64 %5, 3
  %15 = and i64 %5, 2305843009213693951
  %16 = call noalias nonnull ptr @rb_alloc_tmp_buffer_with_count(ptr noundef nonnull %4, i64 noundef %14, i64 noundef %15) #28
  br label %17

17:                                               ; preds = %rb_alloc_tmp_buffer2.exit, %8
  %18 = phi ptr [ %10, %8 ], [ %16, %rb_alloc_tmp_buffer2.exit ]
  %19 = getelementptr i32, ptr %18, i64 %5
  %20 = call i32 @rb_integer_pack(i64 noundef %2, ptr noundef nonnull %18, i64 noundef %5, i64 noundef 4, i64 noundef 0, i32 noundef 66) #23
  %21 = getelementptr inbounds nuw i8, ptr %0, i64 32
  %.03447 = add i64 %5, -1
  %22 = icmp sgt i64 %.03447, -1
  br i1 %22, label %.lr.ph, label %.loopexit._crit_edge

.lr.ph:                                           ; preds = %17, %.lr.ph.backedge
  %.03450 = phi i64 [ %.03450.be, %.lr.ph.backedge ], [ %.03447, %17 ]
  %.03249 = phi i32 [ %.03249.be, %.lr.ph.backedge ], [ 0, %17 ]
  %.03548 = phi i32 [ %.03548.be, %.lr.ph.backedge ], [ 1, %17 ]
  %23 = getelementptr i32, ptr %18, i64 %.03450
  %24 = load i32, ptr %23, align 4, !tbaa !22
  %.not = icmp eq i32 %.03249, 0
  br i1 %.not, label %25, label %.thread

25:                                               ; preds = %.lr.ph
  %26 = zext i32 %24 to i64
  %27 = lshr i64 %26, 1
  %28 = or i64 %27, %26
  %29 = lshr i64 %28, 2
  %30 = or i64 %29, %28
  %31 = lshr i64 %30, 4
  %32 = or i64 %31, %30
  %33 = lshr i64 %32, 8
  %34 = or i64 %33, %32
  %35 = lshr i64 %34, 16
  %36 = or i64 %35, %34
  %37 = trunc nuw i64 %36 to i32
  %.not41 = icmp eq i64 %36, 0
  br i1 %.not41, label %46, label %.thread

.thread:                                          ; preds = %.lr.ph, %25
  %38 = phi i32 [ %37, %25 ], [ -1, %.lr.ph ]
  %39 = load ptr, ptr %21, align 8, !tbaa !39
  %40 = call i32 %39(ptr noundef nonnull %1) #23
  %41 = and i32 %40, %38
  %.not42 = icmp eq i32 %.03548, 0
  br i1 %.not42, label %46, label %42

42:                                               ; preds = %.thread
  %43 = icmp ult i32 %24, %41
  br i1 %43, label %.lr.ph.backedge, label %44

44:                                               ; preds = %42
  %45 = icmp uge i32 %41, %24
  %spec.select = zext i1 %45 to i32
  br label %46

46:                                               ; preds = %25, %.thread, %44
  %47 = phi i32 [ %38, %.thread ], [ 0, %25 ], [ %38, %44 ]
  %.1 = phi i32 [ 0, %.thread ], [ %.03548, %25 ], [ %spec.select, %44 ]
  %.033 = phi i32 [ %41, %.thread ], [ 0, %25 ], [ %41, %44 ]
  %48 = getelementptr i32, ptr %19, i64 %.03450
  store i32 %.033, ptr %48, align 4, !tbaa !22
  %.034 = add nsw i64 %.03450, -1
  %49 = icmp sgt i64 %.03450, 0
  br i1 %49, label %.lr.ph.backedge, label %.loopexit._crit_edge

.lr.ph.backedge:                                  ; preds = %46, %42
  %.03450.be = phi i64 [ %.034, %46 ], [ %.03447, %42 ]
  %.03249.be = phi i32 [ %47, %46 ], [ 0, %42 ]
  %.03548.be = phi i32 [ %.1, %46 ], [ 1, %42 ]
  br label %.lr.ph, !llvm.loop !99

.loopexit._crit_edge:                             ; preds = %46, %17
  %50 = call i64 @rb_integer_unpack(ptr noundef %19, i64 noundef %5, i64 noundef 4, i64 noundef 0, i32 noundef 66) #23
  call void @rb_free_tmp_buffer(ptr noundef nonnull %4) #23
  call void @llvm.lifetime.end.p0(i64 8, ptr nonnull %4) #23
  ret i64 %50
}